; Function Attrs: mustprogress nounwind uwtable
define dso_local void @_ZN4llvm13MCELFStreamer18emitCGProfileEntryEPKNS_15MCSymbolRefExprES3_m(ptr nocapture noundef nonnull readonly align 8 dereferenceable(6601) %0, ptr noundef %1, ptr noundef %2, i64 noundef %3) unnamed_addr #0 align 2 {
  %5 = alloca %"struct.llvm::MCObjectWriter::CGProfileEntry", align 8
  %6 = getelementptr inbounds nuw i8, ptr %0, i64 288
  %7 = load ptr, ptr %6, align 8
  %8 = getelementptr inbounds nuw i8, ptr %7, i64 24
  %9 = load ptr, ptr %8, align 8
  %10 = getelementptr inbounds nuw i8, ptr %9, i64 88
  store ptr %1, ptr %5, align 8
  %11 = getelementptr inbounds nuw i8, ptr %5, i64 8
  store ptr %2, ptr %11, align 8
  %12 = getelementptr inbounds nuw i8, ptr %5, i64 16
  store i64 %3, ptr %12, align 8
  call void @_ZN4llvm23SmallVectorTemplateBaseINS_14MCObjectWriter14CGProfileEntryELb1EE9push_backERKS2_(ptr noundef nonnull align 8 dereferenceable(16) %10, ptr noundef nonnull align 8 dereferenceable(24) %5)
  ret void
}